target datalayout = "e-m:e-p270:32:32-p271:32:32-p272:64:64-i64:64-i128:128-f80:128-n8:16:32:64-S128"
target triple = "x86_64-pc-linux-gnu"

%"class.gmx::GpuTaskAssignments" = type { ptr, %"class.std::vector", i64, i64, i64, %"class.std::vector.0" }
%"class.std::vector" = type { %"struct.std::_Vector_base" }
%"struct.std::_Vector_base" = type { %"struct.std::_Vector_base<std::vector<gmx::GpuTaskMapping>, std::allocator<std::vector<gmx::GpuTaskMapping>>>::_Vector_impl" }
%"struct.std::_Vector_base<std::vector<gmx::GpuTaskMapping>, std::allocator<std::vector<gmx::GpuTaskMapping>>>::_Vector_impl" = type { %"struct.std::_Vector_base<std::vector<gmx::GpuTaskMapping>, std::allocator<std::vector<gmx::GpuTaskMapping>>>::_Vector_impl_data" }
%"struct.std::_Vector_base<std::vector<gmx::GpuTaskMapping>, std::allocator<std::vector<gmx::GpuTaskMapping>>>::_Vector_impl_data" = type { ptr, ptr, ptr }
%"class.std::vector.0" = type { %"struct.std::_Vector_base.1" }
%"struct.std::_Vector_base.1" = type { %"struct.std::_Vector_base<int, std::allocator<int>>::_Vector_impl" }
%"struct.std::_Vector_base<int, std::allocator<int>>::_Vector_impl" = type { %"struct.std::_Vector_base<int, std::allocator<int>>::_Vector_impl_data" }
%"struct.std::_Vector_base<int, std::allocator<int>>::_Vector_impl_data" = type { ptr, ptr, ptr }
%"class.__gnu_cxx::__normal_iterator.74" = type { ptr }
%"class.std::vector.69" = type { %"struct.std::_Vector_base.70" }
%"struct.std::_Vector_base.70" = type { %"struct.std::_Vector_base<gmx::GpuTaskMapping, std::allocator<gmx::GpuTaskMapping>>::_Vector_impl" }
%"struct.std::_Vector_base<gmx::GpuTaskMapping, std::allocator<gmx::GpuTaskMapping>>::_Vector_impl" = type { %"struct.std::_Vector_base<gmx::GpuTaskMapping, std::allocator<gmx::GpuTaskMapping>>::_Vector_impl_data" }
%"struct.std::_Vector_base<gmx::GpuTaskMapping, std::allocator<gmx::GpuTaskMapping>>::_Vector_impl_data" = type { ptr, ptr, ptr }

; Function Attrs: mustprogress nounwind uwtable
define linkonce_odr noundef nonnull align 8 dereferenceable(8) ptr @_ZNK9__gnu_cxx17__normal_iteratorIPKN3gmx14GpuTaskMappingESt6vectorIS2_SaIS2_EEE4baseEv(ptr noundef nonnull align 8 dereferenceable(8) %0) #2 comdat align 2 {
  %2 = alloca ptr, align 8
  store ptr %0, ptr %2, align 8, !tbaa !156
  %3 = load ptr, ptr %2, align 8
  %4 = getelementptr inbounds nuw %"class.__gnu_cxx::__normal_iterator.74", ptr %3, i32 0, i32 0
  ret ptr %4
}

; Function Attrs: mustprogress nounwind uwtable
define linkonce_odr void @_ZN9__gnu_cxx17__normal_iteratorIPKN3gmx14GpuTaskMappingESt6vectorIS2_SaIS2_EEEC2ERKS4_(ptr noundef nonnull align 8 dereferenceable(8) %0, ptr noundef nonnull align 8 dereferenceable(8) %1) unnamed_addr #2 comdat align 2 {
  %3 = alloca ptr, align 8
  %4 = alloca ptr, align 8
  store ptr %0, ptr %3, align 8, !tbaa !156
  store ptr %1, ptr %4, align 8, !tbaa !286
  %5 = load ptr, ptr %3, align 8
  %6 = getelementptr inbounds nuw %"class.__gnu_cxx::__normal_iterator.74", ptr %5, i32 0, i32 0
  %7 = load ptr, ptr %4, align 8, !tbaa !286
  %8 = load ptr, ptr %7, align 8, !tbaa !47
  store ptr %8, ptr %6, align 8, !tbaa !161
  ret void
}

; Function Attrs: inlinehint mustprogress nounwind uwtable
define linkonce_odr noundef zeroext i1 @_ZN9__gnu_cxxeqIPKN3gmx14GpuTaskMappingESt6vectorIS2_SaIS2_EEEEbRKNS_17__normal_iteratorIT_T0_EESD_(ptr noundef nonnull align 8 dereferenceable(8) %0, ptr noundef nonnull align 8 dereferenceable(8) %1) #5 comdat {
  %3 = alloca ptr, align 8
  %4 = alloca ptr, align 8
  store ptr %0, ptr %3, align 8, !tbaa !156
  store ptr %1, ptr %4, align 8, !tbaa !156
  %5 = load ptr, ptr %3, align 8, !tbaa !156
  %6 = call noundef nonnull align 8 dereferenceable(8) ptr @_ZNK9__gnu_cxx17__normal_iteratorIPKN3gmx14GpuTaskMappingESt6vectorIS2_SaIS2_EEE4baseEv(ptr noundef nonnull align 8 dereferenceable(8) %5) #20
  %7 = load ptr, ptr %6, align 8, !tbaa !47
  %8 = load ptr, ptr %4, align 8, !tbaa !156
  %9 = call noundef nonnull align 8 dereferenceable(8) ptr @_ZNK9__gnu_cxx17__normal_iteratorIPKN3gmx14GpuTaskMappingESt6vectorIS2_SaIS2_EEE4baseEv(ptr noundef nonnull align 8 dereferenceable(8) %8) #20
  %10 = load ptr, ptr %9, align 8, !tbaa !47
  %11 = icmp eq ptr %7, %10
  ret i1 %11
}

; Function Attrs: mustprogress nounwind uwtable
define linkonce_odr ptr @_ZNKSt6vectorIN3gmx14GpuTaskMappingESaIS1_EE3endEv(ptr noundef nonnull align 8 dereferenceable(24) %0) #2 comdat align 2 {
  %2 = alloca %"class.__gnu_cxx::__normal_iterator.74", align 8
  %3 = alloca ptr, align 8
  store ptr %0, ptr %3, align 8, !tbaa !46
  %4 = load ptr, ptr %3, align 8
  %5 = getelementptr inbounds nuw %"struct.std::_Vector_base.70", ptr %4, i32 0, i32 0
  %6 = getelementptr inbounds nuw %"struct.std::_Vector_base<gmx::GpuTaskMapping, std::allocator<gmx::GpuTaskMapping>>::_Vector_impl_data", ptr %5, i32 0, i32 1
  call void @_ZN9__gnu_cxx17__normal_iteratorIPKN3gmx14GpuTaskMappingESt6vectorIS2_SaIS2_EEEC2ERKS4_(ptr noundef nonnull align 8 dereferenceable(8) %2, ptr noundef nonnull align 8 dereferenceable(8) %6) #20
  %7 = getelementptr inbounds nuw %"class.__gnu_cxx::__normal_iterator.74", ptr %2, i32 0, i32 0
  %8 = load ptr, ptr %7, align 8
  ret ptr %8
}

; Function Attrs: mustprogress nounwind uwtable
define linkonce_odr ptr @_ZNKSt6vectorIN3gmx14GpuTaskMappingESaIS1_EE5beginEv(ptr noundef nonnull align 8 dereferenceable(24) %0) #2 comdat align 2 {
  %2 = alloca %"class.__gnu_cxx::__normal_iterator.74", align 8
  %3 = alloca ptr, align 8
  store ptr %0, ptr %3, align 8, !tbaa !46
  %4 = load ptr, ptr %3, align 8
  %5 = getelementptr inbounds nuw %"struct.std::_Vector_base.70", ptr %4, i32 0, i32 0
  %6 = getelementptr inbounds nuw %"struct.std::_Vector_base<gmx::GpuTaskMapping, std::allocator<gmx::GpuTaskMapping>>::_Vector_impl_data", ptr %5, i32 0, i32 0
  call void @_ZN9__gnu_cxx17__normal_iteratorIPKN3gmx14GpuTaskMappingESt6vectorIS2_SaIS2_EEEC2ERKS4_(ptr noundef nonnull align 8 dereferenceable(8) %2, ptr noundef nonnull align 8 dereferenceable(8) %6) #20
  %7 = getelementptr inbounds nuw %"class.__gnu_cxx::__normal_iterator.74", ptr %2, i32 0, i32 0
  %8 = load ptr, ptr %7, align 8
  ret ptr %8
}

; Function Attrs: mustprogress nounwind uwtable
define linkonce_odr noundef zeroext i1 @_ZNKSt6vectorIN3gmx14GpuTaskMappingESaIS1_EE5emptyEv(ptr noundef nonnull align 8 dereferenceable(24) %0) #2 comdat align 2 {
  %2 = alloca ptr, align 8
  %3 = alloca %"class.__gnu_cxx::__normal_iterator.74", align 8
  %4 = alloca %"class.__gnu_cxx::__normal_iterator.74", align 8
  store ptr %0, ptr %2, align 8, !tbaa !46
  %5 = load ptr, ptr %2, align 8
  call void @llvm.lifetime.start.p0(i64 8, ptr %3) #20
  %6 = call ptr @_ZNKSt6vectorIN3gmx14GpuTaskMappingESaIS1_EE5beginEv(ptr noundef nonnull align 8 dereferenceable(24) %5) #20
  %7 = getelementptr inbounds nuw %"class.__gnu_cxx::__normal_iterator.74", ptr %3, i32 0, i32 0
  store ptr %6, ptr %7, align 8
  call void @llvm.lifetime.start.p0(i64 8, ptr %4) #20
  %8 = call ptr @_ZNKSt6vectorIN3gmx14GpuTaskMappingESaIS1_EE3endEv(ptr noundef nonnull align 8 dereferenceable(24) %5) #20
  %9 = getelementptr inbounds nuw %"class.__gnu_cxx::__normal_iterator.74", ptr %4, i32 0, i32 0
  store ptr %8, ptr %9, align 8
  %10 = call noundef zeroext i1 @_ZN9__gnu_cxxeqIPKN3gmx14GpuTaskMappingESt6vectorIS2_SaIS2_EEEEbRKNS_17__normal_iteratorIT_T0_EESD_(ptr noundef nonnull align 8 dereferenceable(8) %3, ptr noundef nonnull align 8 dereferenceable(8) %4) #20
  call void @llvm.lifetime.end.p0(i64 8, ptr %4) #20
  call void @llvm.lifetime.end.p0(i64 8, ptr %3) #20
  ret i1 %10
}

; Function Attrs: mustprogress nounwind uwtable
define linkonce_odr noundef nonnull align 8 dereferenceable(24) ptr @_ZNKSt6vectorIS_IN3gmx14GpuTaskMappingESaIS1_EESaIS3_EEixEm(ptr noundef nonnull align 8 dereferenceable(24) %0, i64 noundef %1) #2 comdat align 2 {
  %3 = alloca ptr, align 8
  %4 = alloca i64, align 8
  store ptr %0, ptr %3, align 8, !tbaa !58
  store i64 %1, ptr %4, align 8, !tbaa !10
  %5 = load ptr, ptr %3, align 8
  %6 = getelementptr inbounds nuw %"struct.std::_Vector_base", ptr %5, i32 0, i32 0
  %7 = getelementptr inbounds nuw %"struct.std::_Vector_base<std::vector<gmx::GpuTaskMapping>, std::allocator<std::vector<gmx::GpuTaskMapping>>>::_Vector_impl_data", ptr %6, i32 0, i32 0
  %8 = load ptr, ptr %7, align 8, !tbaa !128
  %9 = load i64, ptr %4, align 8, !tbaa !10
  %10 = getelementptr inbounds nuw %"class.std::vector.69", ptr %8, i64 %9
  ret ptr %10
}

; Function Attrs: mustprogress nounwind uwtable
define noundef zeroext i1 @_ZNK3gmx18GpuTaskAssignments21thisRankHasAnyGpuTaskEv(ptr noundef nonnull align 8 dereferenceable(80) %0) #2 align 2 {
  %2 = alloca ptr, align 8
  %3 = alloca ptr, align 8
  %4 = alloca i8, align 1
  store ptr %0, ptr %2, align 8, !tbaa !3
  %5 = load ptr, ptr %2, align 8
  call void @llvm.lifetime.start.p0(i64 8, ptr %3) #20
  %6 = getelementptr inbounds nuw %"class.gmx::GpuTaskAssignments", ptr %5, i32 0, i32 1
  %7 = getelementptr inbounds nuw %"class.gmx::GpuTaskAssignments", ptr %5, i32 0, i32 2
  %8 = load i64, ptr %7, align 8, !tbaa !86
  %9 = call noundef nonnull align 8 dereferenceable(24) ptr @_ZNKSt6vectorIS_IN3gmx14GpuTaskMappingESaIS1_EESaIS3_EEixEm(ptr noundef nonnull align 8 dereferenceable(24) %6, i64 noundef %8) #20
  store ptr %9, ptr %3, align 8, !tbaa !46
  call void @llvm.lifetime.start.p0(i64 1, ptr %4) #20
  %10 = load ptr, ptr %3, align 8, !tbaa !46
  %11 = call noundef zeroext i1 @_ZNKSt6vectorIN3gmx14GpuTaskMappingESaIS1_EE5emptyEv(ptr noundef nonnull align 8 dereferenceable(24) %10) #20
  %12 = xor i1 %11, true
  %13 = zext i1 %12 to i8
  store i8 %13, ptr %4, align 1, !tbaa !69
  %14 = load i8, ptr %4, align 1, !tbaa !69, !range !80, !noundef !81
  %15 = trunc i8 %14 to i1
  call void @llvm.lifetime.end.p0(i64 1, ptr %4) #20
  call void @llvm.lifetime.end.p0(i64 8, ptr %3) #20
  ret i1 %15
}